; Function Attrs: mustprogress sspstrong uwtable
define void @_ZN3tbb6detail2r117threading_control14publish_clientENS1_24threading_control_clientERNS0_2d111constraintsE(ptr noundef nonnull readonly align 8 captures(none) dereferenceable(16) %0, ptr %1, ptr %2, ptr noundef nonnull align 4 dereferenceable(16) %3) local_unnamed_addr #0 align 2 {
  %5 = load ptr, ptr %0, align 8, !tbaa !150
  %6 = load ptr, ptr %5, align 8, !tbaa !47
  %7 = load ptr, ptr %6, align 8, !tbaa !14
  %8 = getelementptr inbounds nuw i8, ptr %7, i64 24
  %9 = load ptr, ptr %8, align 8
  tail call void %9(ptr noundef nonnull align 8 dereferenceable(16) %6, ptr noundef %1, ptr noundef nonnull align 4 dereferenceable(16) %3)
  %10 = getelementptr inbounds nuw i8, ptr %5, i64 8
  %11 = load ptr, ptr %10, align 8, !tbaa !25
  tail call void @_ZN3tbb6detail2r117thread_dispatcher15register_clientEPNS1_24thread_dispatcher_clientE(ptr noundef nonnull align 8 dereferenceable(152) %11, ptr noundef %2)
  ret void
}